libkbookmarkmodel_private.so.6:_ZN11EditCommand4redoEv
libkbookmarkmodel_private.so.6:_ZN11EditCommand4undoEv
libkbookmarkmodel_private.so.6:_ZN11EditCommand6modifyERK7QString
libkbookmarkmodel_private.so.6:_ZN11EditCommandC1EP14KBookmarkModelRK7QStringiS4_P12QUndoCommand
libkbookmarkmodel_private.so.6:_ZN11EditCommandC2EP14KBookmarkModelRK7QStringiS4_P12QUndoCommand
libkbookmarkmodel_private.so.6:_ZN11SortCommand4redoEv
libkbookmarkmodel_private.so.6:_ZN11SortCommand4undoEv
libkbookmarkmodel_private.so.6:_ZN11SortCommand9moveAfterERK8SortItemS2_
libkbookmarkmodel_private.so.6:_ZN11SortCommandC1EP14KBookmarkModelRK7QStringS4_P12QUndoCommand
libkbookmarkmodel_private.so.6:_ZN11SortCommandC2EP14KBookmarkModelRK7QStringS4_P12QUndoCommand
libkbookmarkmodel_private.so.6:_ZN13CreateCommand4redoEv
libkbookmarkmodel_private.so.6:_ZN13CreateCommand4undoEv
libkbookmarkmodel_private.so.6:_ZN13CreateCommandC1EP14KBookmarkModelRK7QStringP12QUndoCommand
libkbookmarkmodel_private.so.6:_ZN13CreateCommandC1EP14KBookmarkModelRK7QStringRK9KBookmarkS4_P12QUndoCommand
libkbookmarkmodel_private.so.6:_ZN13CreateCommandC1EP14KBookmarkModelRK7QStringS4_S4_RK4QUrlP12QUndoCommand
libkbookmarkmodel_private.so.6:_ZN13CreateCommandC1EP14KBookmarkModelRK7QStringS4_S4_bP12QUndoCommand
libkbookmarkmodel_private.so.6:_ZN13CreateCommandC2EP14KBookmarkModelRK7QStringP12QUndoCommand
libkbookmarkmodel_private.so.6:_ZN13CreateCommandC2EP14KBookmarkModelRK7QStringRK9KBookmarkS4_P12QUndoCommand
libkbookmarkmodel_private.so.6:_ZN13CreateCommandC2EP14KBookmarkModelRK7QStringS4_S4_RK4QUrlP12QUndoCommand
libkbookmarkmodel_private.so.6:_ZN13CreateCommandC2EP14KBookmarkModelRK7QStringS4_S4_bP12QUndoCommand
libkbookmarkmodel_private.so.6:_ZN13DeleteCommand4redoEv
libkbookmarkmodel_private.so.6:_ZN13DeleteCommand4undoEv
libkbookmarkmodel_private.so.6:_ZN13DeleteCommand9deleteAllEP14KBookmarkModelRK14KBookmarkGroup
libkbookmarkmodel_private.so.6:_ZN13DeleteCommandC1EP14KBookmarkModelRK7QStringbP12QUndoCommand
libkbookmarkmodel_private.so.6:_ZN13DeleteCommandC2EP14KBookmarkModelRK7QStringbP12QUndoCommand
libkbookmarkmodel_private.so.6:_ZN13KBookmarkView11qt_metacallEN11QMetaObject4CallEiPPv
libkbookmarkmodel_private.so.6:_ZN13KBookmarkView11qt_metacastEPKc
libkbookmarkmodel_private.so.6:_ZN13KBookmarkView12slotExpandedERK11QModelIndex
libkbookmarkmodel_private.so.6:_ZN13KBookmarkView13slotCollapsedERK11QModelIndex
libkbookmarkmodel_private.so.6:_ZN13KBookmarkView15loadFoldedStateERK11QModelIndex
libkbookmarkmodel_private.so.6:_ZN13KBookmarkView15loadFoldedStateEv
libkbookmarkmodel_private.so.6:_ZN13KBookmarkViewC1EP7QWidget
libkbookmarkmodel_private.so.6:_ZN13KBookmarkViewC2EP7QWidget
libkbookmarkmodel_private.so.6:_ZN13KBookmarkViewD0Ev
libkbookmarkmodel_private.so.6:_ZN13KBookmarkViewD1Ev
libkbookmarkmodel_private.so.6:_ZN13KBookmarkViewD2Ev
libkbookmarkmodel_private.so.6:_ZN14CommandHistory10addCommandEP12QUndoCommand
libkbookmarkmodel_private.so.6:_ZN14CommandHistory11qt_metacallEN11QMetaObject4CallEiPPv
libkbookmarkmodel_private.so.6:_ZN14CommandHistory11qt_metacastEPKc
libkbookmarkmodel_private.so.6:_ZN14CommandHistory12clearHistoryEv
libkbookmarkmodel_private.so.6:_ZN14CommandHistory13createActionsEP17KActionCollection
libkbookmarkmodel_private.so.6:_ZN14CommandHistory14notifyDocSavedEv
libkbookmarkmodel_private.so.6:_ZN14CommandHistory15bookmarkManagerEv
libkbookmarkmodel_private.so.6:_ZN14CommandHistory15commandExecutedEPK12QUndoCommand
libkbookmarkmodel_private.so.6:_ZN14CommandHistory18setBookmarkManagerEP16KBookmarkManager
libkbookmarkmodel_private.so.6:_ZN14CommandHistory21notifyCommandExecutedERK14KBookmarkGroup
libkbookmarkmodel_private.so.6:_ZN14CommandHistory4redoEv
libkbookmarkmodel_private.so.6:_ZN14CommandHistory4undoEv
libkbookmarkmodel_private.so.6:_ZN14CommandHistoryC1EP7QObject
libkbookmarkmodel_private.so.6:_ZN14CommandHistoryC2EP7QObject
libkbookmarkmodel_private.so.6:_ZN14CommandHistoryD0Ev
libkbookmarkmodel_private.so.6:_ZN14CommandHistoryD1Ev
libkbookmarkmodel_private.so.6:_ZN14CommandHistoryD2Ev
libkbookmarkmodel_private.so.6:_ZN14KBookmarkModel10resetModelEv
libkbookmarkmodel_private.so.6:_ZN14KBookmarkModel11beginInsertERK14KBookmarkGroupii
libkbookmarkmodel_private.so.6:_ZN14KBookmarkModel11qt_metacallEN11QMetaObject4CallEiPPv
libkbookmarkmodel_private.so.6:_ZN14KBookmarkModel11qt_metacastEPKc
libkbookmarkmodel_private.so.6:_ZN14KBookmarkModel12dropMimeDataEPK9QMimeDataN2Qt10DropActionEiiRK11QModelIndex
libkbookmarkmodel_private.so.6:_ZN14KBookmarkModel14commandHistoryEv
libkbookmarkmodel_private.so.6:_ZN14KBookmarkModel14notifyManagersERK14KBookmarkGroup
libkbookmarkmodel_private.so.6:_ZN14KBookmarkModel14removeBookmarkERK9KBookmark
libkbookmarkmodel_private.so.6:_ZN14KBookmarkModel15bookmarkManagerEv
libkbookmarkmodel_private.so.6:_ZN14KBookmarkModel15emitDataChangedERK9KBookmark
libkbookmarkmodel_private.so.6:_ZN14KBookmarkModel7Private24_kd_slotBookmarksChangedERK7QString
libkbookmarkmodel_private.so.6:_ZN14KBookmarkModel7setDataERK11QModelIndexRK8QVarianti
libkbookmarkmodel_private.so.6:_ZN14KBookmarkModel7setRootERK9KBookmark
libkbookmarkmodel_private.so.6:_ZN14KBookmarkModel9endInsertEv
libkbookmarkmodel_private.so.6:_ZN14KBookmarkModelC1ERK9KBookmarkP14CommandHistoryP7QObject
libkbookmarkmodel_private.so.6:_ZN14KBookmarkModelC2ERK9KBookmarkP14CommandHistoryP7QObject
libkbookmarkmodel_private.so.6:_ZN14KBookmarkModelD0Ev
libkbookmarkmodel_private.so.6:_ZN14KBookmarkModelD1Ev
libkbookmarkmodel_private.so.6:_ZN14KBookmarkModelD2Ev
libkbookmarkmodel_private.so.6:_ZN17DeleteManyCommandC1EP14KBookmarkModelRK7QStringRK5QListI9KBookmarkE
libkbookmarkmodel_private.so.6:_ZN17DeleteManyCommandC2EP14KBookmarkModelRK7QStringRK5QListI9KBookmarkE
libkbookmarkmodel_private.so.6:_ZN6CmdGen10itemsMovedEP14KBookmarkModelRK5QListI9KBookmarkERK7QStringb
libkbookmarkmodel_private.so.6:_ZN6CmdGen12setAsToolbarEP14KBookmarkModelRK9KBookmark
libkbookmarkmodel_private.so.6:_ZN6CmdGen16insertMimeSourceEP14KBookmarkModelRK7QStringPK9QMimeDataS4_
libkbookmarkmodel_private.so.6:_ZNK11SortCommand17affectedBookmarksEv
libkbookmarkmodel_private.so.6:_ZNK13CreateCommand12finalAddressEv
libkbookmarkmodel_private.so.6:_ZNK13CreateCommand17affectedBookmarksEv
libkbookmarkmodel_private.so.6:_ZNK13DeleteCommand17affectedBookmarksEv
libkbookmarkmodel_private.so.6:_ZNK13KBookmarkView10metaObjectEv
libkbookmarkmodel_private.so.6:_ZNK14CommandHistory10metaObjectEv
libkbookmarkmodel_private.so.6:_ZNK14KBookmarkModel10headerDataEiN2Qt11OrientationEi
libkbookmarkmodel_private.so.6:_ZNK14KBookmarkModel10metaObjectEv
libkbookmarkmodel_private.so.6:_ZNK14KBookmarkModel11columnCountERK11QModelIndex
libkbookmarkmodel_private.so.6:_ZNK14KBookmarkModel16bookmarkForIndexERK11QModelIndex
libkbookmarkmodel_private.so.6:_ZNK14KBookmarkModel16indexForBookmarkERK9KBookmark
libkbookmarkmodel_private.so.6:_ZNK14KBookmarkModel20supportedDropActionsEv
libkbookmarkmodel_private.so.6:_ZNK14KBookmarkModel4dataERK11QModelIndexi
libkbookmarkmodel_private.so.6:_ZNK14KBookmarkModel5flagsERK11QModelIndex
libkbookmarkmodel_private.so.6:_ZNK14KBookmarkModel5indexEiiRK11QModelIndex
libkbookmarkmodel_private.so.6:_ZNK14KBookmarkModel6parentERK11QModelIndex
libkbookmarkmodel_private.so.6:_ZNK14KBookmarkModel8mimeDataERK5QListI11QModelIndexE
libkbookmarkmodel_private.so.6:_ZNK14KBookmarkModel8rowCountERK11QModelIndex
libkbookmarkmodel_private.so.6:_ZNK14KBookmarkModel9mimeTypesEv
libkbookmarkmodel_private.so.6:_ZNK15KEBMacroCommand17affectedBookmarksEv
libkbookmarkmodel_private.so.6:_ZThn16_N13KBookmarkViewD0Ev
libkbookmarkmodel_private.so.6:_ZThn16_N13KBookmarkViewD1Ev
libkbookmarkmodel_private.so.6:_ZThn16_NK11SortCommand17affectedBookmarksEv
libkbookmarkmodel_private.so.6:_ZThn16_NK13CreateCommand17affectedBookmarksEv
libkbookmarkmodel_private.so.6:_ZThn16_NK13DeleteCommand17affectedBookmarksEv
libkbookmarkmodel_private.so.6:_ZThn16_NK15KEBMacroCommand17affectedBookmarksEv
